; Function Attrs: mustprogress nounwind uwtable
define noundef ptr @_ZNK5folly10symbolizer7ElfFile9getStringERK10Elf64_Shdrm(ptr noundef nonnull readonly align 8 captures(none) dereferenceable(576) %0, ptr noundef nonnull readonly align 8 captures(none) dereferenceable(64) %1, i64 noundef %2) local_unnamed_addr #4 align 2 personality ptr @__gxx_personality_v0 {
  %4 = getelementptr inbounds nuw i8, ptr %1, i64 4
  %5 = load i32, ptr %4, align 4, !tbaa !88
  %6 = icmp eq i32 %5, 3
  br i1 %6, label %8, label %7

7:                                                ; preds = %3
  tail call void (ptr, ...) @_ZN5folly6detail21safe_assert_terminateILb0EEEvPKNS0_15safe_assert_argEz(ptr noundef nonnull @_ZZNK5folly10symbolizer7ElfFile19validateStringTableERK10Elf64_ShdrE30__folly_detail_safe_assert_arg, ptr noundef nonnull @.str.38) #30
  unreachable

8:                                                ; preds = %3
  %9 = getelementptr inbounds nuw i8, ptr %0, i64 520
  %10 = load ptr, ptr %9, align 8, !tbaa !17
  %11 = getelementptr inbounds nuw i8, ptr %1, i64 24
  %12 = load i64, ptr %11, align 8, !tbaa !75
  %13 = getelementptr inbounds nuw i8, ptr %10, i64 %12
  %14 = getelementptr inbounds nuw i8, ptr %1, i64 32
  %15 = load i64, ptr %14, align 8, !tbaa !80
  %16 = icmp eq i64 %15, 0
  br i1 %16, label %_ZNK5folly10symbolizer7ElfFile19validateStringTableERK10Elf64_Shdr.exit, label %17

17:                                               ; preds = %8
  %18 = load i8, ptr %13, align 1, !tbaa !7
  %19 = icmp eq i8 %18, 0
  br i1 %19, label %20, label %.critedge2.i

20:                                               ; preds = %17
  %21 = getelementptr i8, ptr %13, i64 %15
  %22 = getelementptr i8, ptr %21, i64 -1
  %23 = load i8, ptr %22, align 1, !tbaa !7
  %24 = icmp eq i8 %23, 0
  br i1 %24, label %_ZNK5folly10symbolizer7ElfFile19validateStringTableERK10Elf64_Shdr.exit, label %.critedge2.i

.critedge2.i:                                     ; preds = %20, %17
  tail call void (ptr, ...) @_ZN5folly6detail21safe_assert_terminateILb0EEEvPKNS0_15safe_assert_argEz(ptr noundef nonnull @_ZZNK5folly10symbolizer7ElfFile19validateStringTableERK10Elf64_ShdrE30__folly_detail_safe_assert_arg_0, ptr noundef nonnull @.str.41) #30
  unreachable

_ZNK5folly10symbolizer7ElfFile19validateStringTableERK10Elf64_Shdr.exit: ; preds = %8, %20
  %25 = icmp ult i64 %2, %15
  br i1 %25, label %27, label %26

26:                                               ; preds = %_ZNK5folly10symbolizer7ElfFile19validateStringTableERK10Elf64_Shdr.exit
  tail call void (ptr, ...) @_ZN5folly6detail21safe_assert_terminateILb0EEEvPKNS0_15safe_assert_argEz(ptr noundef nonnull @_ZZNK5folly10symbolizer7ElfFile9getStringERK10Elf64_ShdrmE30__folly_detail_safe_assert_arg, ptr noundef nonnull @.str.44) #30
  unreachable

27:                                               ; preds = %_ZNK5folly10symbolizer7ElfFile19validateStringTableERK10Elf64_Shdr.exit
  %28 = getelementptr inbounds nuw i8, ptr %13, i64 %2
  ret ptr %28
}